target datalayout = "e-m:e-p270:32:32-p271:32:32-p272:64:64-i64:64-i128:128-f80:128-n8:16:32:64-S128"
target triple = "x86_64-pc-linux-gnu"

; Function Attrs: nounwind ssp uwtable
define internal i32 @b64_byte_to_char(i32 noundef %0) #0 {
  %2 = alloca i32, align 4
  store i32 %0, ptr %2, align 4
  %3 = load i32, ptr %2, align 4
  %4 = sub i32 %3, 26
  %5 = lshr i32 %4, 8
  %6 = and i32 %5, 255
  %7 = load i32, ptr %2, align 4
  %8 = add i32 %7, 65
  %9 = and i32 %6, %8
  %10 = load i32, ptr %2, align 4
  %11 = sub i32 %10, 26
  %12 = lshr i32 %11, 8
  %13 = and i32 %12, 255
  %14 = xor i32 %13, 255
  %15 = load i32, ptr %2, align 4
  %16 = sub i32 %15, 52
  %17 = lshr i32 %16, 8
  %18 = and i32 %17, 255
  %19 = and i32 %14, %18
  %20 = load i32, ptr %2, align 4
  %21 = add i32 %20, 71
  %22 = and i32 %19, %21
  %23 = or i32 %9, %22
  %24 = load i32, ptr %2, align 4
  %25 = sub i32 %24, 52
  %26 = lshr i32 %25, 8
  %27 = and i32 %26, 255
  %28 = xor i32 %27, 255
  %29 = load i32, ptr %2, align 4
  %30 = sub i32 %29, 62
  %31 = lshr i32 %30, 8
  %32 = and i32 %31, 255
  %33 = and i32 %28, %32
  %34 = load i32, ptr %2, align 4
  %35 = add i32 %34, -4
  %36 = and i32 %33, %35
  %37 = or i32 %23, %36
  %38 = load i32, ptr %2, align 4
  %39 = xor i32 %38, 62
  %40 = sub i32 0, %39
  %41 = lshr i32 %40, 8
  %42 = and i32 %41, 255
  %43 = xor i32 %42, 255
  %44 = and i32 %43, 43
  %45 = or i32 %37, %44
  %46 = load i32, ptr %2, align 4
  %47 = xor i32 %46, 63
  %48 = sub i32 0, %47
  %49 = lshr i32 %48, 8
  %50 = and i32 %49, 255
  %51 = xor i32 %50, 255
  %52 = and i32 %51, 47
  %53 = or i32 %45, %52
  ret i32 %53
}

; Function Attrs: nounwind ssp uwtable
define internal i32 @b64_byte_to_urlsafe_char(i32 noundef %0) #0 {
  %2 = alloca i32, align 4
  store i32 %0, ptr %2, align 4
  %3 = load i32, ptr %2, align 4
  %4 = sub i32 %3, 26
  %5 = lshr i32 %4, 8
  %6 = and i32 %5, 255
  %7 = load i32, ptr %2, align 4
  %8 = add i32 %7, 65
  %9 = and i32 %6, %8
  %10 = load i32, ptr %2, align 4
  %11 = sub i32 %10, 26
  %12 = lshr i32 %11, 8
  %13 = and i32 %12, 255
  %14 = xor i32 %13, 255
  %15 = load i32, ptr %2, align 4
  %16 = sub i32 %15, 52
  %17 = lshr i32 %16, 8
  %18 = and i32 %17, 255
  %19 = and i32 %14, %18
  %20 = load i32, ptr %2, align 4
  %21 = add i32 %20, 71
  %22 = and i32 %19, %21
  %23 = or i32 %9, %22
  %24 = load i32, ptr %2, align 4
  %25 = sub i32 %24, 52
  %26 = lshr i32 %25, 8
  %27 = and i32 %26, 255
  %28 = xor i32 %27, 255
  %29 = load i32, ptr %2, align 4
  %30 = sub i32 %29, 62
  %31 = lshr i32 %30, 8
  %32 = and i32 %31, 255
  %33 = and i32 %28, %32
  %34 = load i32, ptr %2, align 4
  %35 = add i32 %34, -4
  %36 = and i32 %33, %35
  %37 = or i32 %23, %36
  %38 = load i32, ptr %2, align 4
  %39 = xor i32 %38, 62
  %40 = sub i32 0, %39
  %41 = lshr i32 %40, 8
  %42 = and i32 %41, 255
  %43 = xor i32 %42, 255
  %44 = and i32 %43, 45
  %45 = or i32 %37, %44
  %46 = load i32, ptr %2, align 4
  %47 = xor i32 %46, 63
  %48 = sub i32 0, %47
  %49 = lshr i32 %48, 8
  %50 = and i32 %49, 255
  %51 = xor i32 %50, 255
  %52 = and i32 %51, 95
  %53 = or i32 %45, %52
  ret i32 %53
}

; Function Attrs: nounwind ssp uwtable
define internal void @sodium_base64_check_variant(i32 noundef %0) #0 {
  %2 = alloca i32, align 4
  store i32 %0, ptr %2, align 4
  %3 = load i32, ptr %2, align 4
  %4 = and i32 %3, -7
  %5 = icmp ne i32 %4, 1
  br i1 %5, label %6, label %7

6:                                                ; preds = %1
  call void @sodium_misuse() #6
  unreachable

7:                                                ; preds = %1
  ret void
}

; Function Attrs: nounwind ssp uwtable
define dso_local ptr @sodium_bin2base64(ptr noundef nonnull %0, i64 noundef %1, ptr noundef %2, i64 noundef %3, i32 noundef %4) #0 {
  %6 = alloca ptr, align 8
  %7 = alloca i64, align 8
  %8 = alloca ptr, align 8
  %9 = alloca i64, align 8
  %10 = alloca i32, align 4
  %11 = alloca i64, align 8
  %12 = alloca i64, align 8
  %13 = alloca i64, align 8
  %14 = alloca i64, align 8
  %15 = alloca i64, align 8
  %16 = alloca i64, align 8
  %17 = alloca i32, align 4
  store ptr %0, ptr %6, align 8
  store i64 %1, ptr %7, align 8
  store ptr %2, ptr %8, align 8
  store i64 %3, ptr %9, align 8
  store i32 %4, ptr %10, align 4
  call void @llvm.lifetime.start.p0(i64 8, ptr %11) #5
  store i64 0, ptr %11, align 8
  call void @llvm.lifetime.start.p0(i64 8, ptr %12) #5
  call void @llvm.lifetime.start.p0(i64 8, ptr %13) #5
  store i64 0, ptr %13, align 8
  call void @llvm.lifetime.start.p0(i64 8, ptr %14) #5
  store i64 0, ptr %14, align 8
  call void @llvm.lifetime.start.p0(i64 8, ptr %15) #5
  call void @llvm.lifetime.start.p0(i64 8, ptr %16) #5
  call void @llvm.lifetime.start.p0(i64 4, ptr %17) #5
  store i32 0, ptr %17, align 4
  %18 = load i32, ptr %10, align 4
  call void @sodium_base64_check_variant(i32 noundef %18)
  %19 = load i64, ptr %9, align 8
  %20 = udiv i64 %19, 3
  store i64 %20, ptr %15, align 8
  %21 = load i64, ptr %9, align 8
  %22 = load i64, ptr %15, align 8
  %23 = mul i64 3, %22
  %24 = sub i64 %21, %23
  store i64 %24, ptr %16, align 8
  %25 = load i64, ptr %15, align 8
  %26 = mul i64 %25, 4
  store i64 %26, ptr %12, align 8
  %27 = load i64, ptr %16, align 8
  %28 = icmp ne i64 %27, 0
  br i1 %28, label %29, label %43

29:                                               ; preds = %5
  %30 = load i32, ptr %10, align 4
  %31 = and i32 %30, 2
  %32 = icmp eq i32 %31, 0
  br i1 %32, label %33, label %36

33:                                               ; preds = %29
  %34 = load i64, ptr %12, align 8
  %35 = add i64 %34, 4
  store i64 %35, ptr %12, align 8
  br label %42

36:                                               ; preds = %29
  %37 = load i64, ptr %16, align 8
  %38 = lshr i64 %37, 1
  %39 = add i64 2, %38
  %40 = load i64, ptr %12, align 8
  %41 = add i64 %40, %39
  store i64 %41, ptr %12, align 8
  br label %42

42:                                               ; preds = %36, %33
  br label %43

43:                                               ; preds = %42, %5
  %44 = load i64, ptr %7, align 8
  %45 = load i64, ptr %12, align 8
  %46 = icmp ule i64 %44, %45
  br i1 %46, label %47, label %48

47:                                               ; preds = %43
  call void @sodium_misuse() #6
  unreachable

48:                                               ; preds = %43
  %49 = load i32, ptr %10, align 4
  %50 = and i32 %49, 4
  %51 = icmp ne i32 %50, 0
  br i1 %51, label %52, label %104

52:                                               ; preds = %48
  br label %53

53:                                               ; preds = %86, %52
  %54 = load i64, ptr %14, align 8
  %55 = load i64, ptr %9, align 8
  %56 = icmp ult i64 %54, %55
  br i1 %56, label %57, label %87

57:                                               ; preds = %53
  %58 = load i32, ptr %17, align 4
  %59 = shl i32 %58, 8
  %60 = load ptr, ptr %8, align 8
  %61 = load i64, ptr %14, align 8
  %62 = add i64 %61, 1
  store i64 %62, ptr %14, align 8
  %63 = getelementptr i8, ptr %60, i64 %61
  %64 = load i8, ptr %63, align 1
  %65 = zext i8 %64 to i32
  %66 = add i32 %59, %65
  store i32 %66, ptr %17, align 4
  %67 = load i64, ptr %11, align 8
  %68 = add i64 %67, 8
  store i64 %68, ptr %11, align 8
  br label %69

69:                                               ; preds = %72, %57
  %70 = load i64, ptr %11, align 8
  %71 = icmp uge i64 %70, 6
  br i1 %71, label %72, label %86

72:                                               ; preds = %69
  %73 = load i64, ptr %11, align 8
  %74 = sub i64 %73, 6
  store i64 %74, ptr %11, align 8
  %75 = load i32, ptr %17, align 4
  %76 = load i64, ptr %11, align 8
  %77 = trunc i64 %76 to i32
  %78 = lshr i32 %75, %77
  %79 = and i32 %78, 63
  %80 = call i32 @b64_byte_to_urlsafe_char(i32 noundef %79)
  %81 = trunc i32 %80 to i8
  %82 = load ptr, ptr %6, align 8
  %83 = load i64, ptr %13, align 8
  %84 = add i64 %83, 1
  store i64 %84, ptr %13, align 8
  %85 = getelementptr i8, ptr %82, i64 %83
  store i8 %81, ptr %85, align 1
  br label %69, !llvm.loop !7

86:                                               ; preds = %69
  br label %53, !llvm.loop !8

87:                                               ; preds = %53
  %88 = load i64, ptr %11, align 8
  %89 = icmp ugt i64 %88, 0
  br i1 %89, label %90, label %103

90:                                               ; preds = %87
  %91 = load i32, ptr %17, align 4
  %92 = load i64, ptr %11, align 8
  %93 = sub i64 6, %92
  %94 = trunc i64 %93 to i32
  %95 = shl i32 %91, %94
  %96 = and i32 %95, 63
  %97 = call i32 @b64_byte_to_urlsafe_char(i32 noundef %96)
  %98 = trunc i32 %97 to i8
  %99 = load ptr, ptr %6, align 8
  %100 = load i64, ptr %13, align 8
  %101 = add i64 %100, 1
  store i64 %101, ptr %13, align 8
  %102 = getelementptr i8, ptr %99, i64 %100
  store i8 %98, ptr %102, align 1
  br label %103

103:                                              ; preds = %90, %87
  br label %156

104:                                              ; preds = %48
  br label %105

105:                                              ; preds = %138, %104
  %106 = load i64, ptr %14, align 8
  %107 = load i64, ptr %9, align 8
  %108 = icmp ult i64 %106, %107
  br i1 %108, label %109, label %139

109:                                              ; preds = %105
  %110 = load i32, ptr %17, align 4
  %111 = shl i32 %110, 8
  %112 = load ptr, ptr %8, align 8
  %113 = load i64, ptr %14, align 8
  %114 = add i64 %113, 1
  store i64 %114, ptr %14, align 8
  %115 = getelementptr i8, ptr %112, i64 %113
  %116 = load i8, ptr %115, align 1
  %117 = zext i8 %116 to i32
  %118 = add i32 %111, %117
  store i32 %118, ptr %17, align 4
  %119 = load i64, ptr %11, align 8
  %120 = add i64 %119, 8
  store i64 %120, ptr %11, align 8
  br label %121

121:                                              ; preds = %124, %109
  %122 = load i64, ptr %11, align 8
  %123 = icmp uge i64 %122, 6
  br i1 %123, label %124, label %138

124:                                              ; preds = %121
  %125 = load i64, ptr %11, align 8
  %126 = sub i64 %125, 6
  store i64 %126, ptr %11, align 8
  %127 = load i32, ptr %17, align 4
  %128 = load i64, ptr %11, align 8
  %129 = trunc i64 %128 to i32
  %130 = lshr i32 %127, %129
  %131 = and i32 %130, 63
  %132 = call i32 @b64_byte_to_char(i32 noundef %131)
  %133 = trunc i32 %132 to i8
  %134 = load ptr, ptr %6, align 8
  %135 = load i64, ptr %13, align 8
  %136 = add i64 %135, 1
  store i64 %136, ptr %13, align 8
  %137 = getelementptr i8, ptr %134, i64 %135
  store i8 %133, ptr %137, align 1
  br label %121, !llvm.loop !9

138:                                              ; preds = %121
  br label %105, !llvm.loop !10

139:                                              ; preds = %105
  %140 = load i64, ptr %11, align 8
  %141 = icmp ugt i64 %140, 0
  br i1 %141, label %142, label %155

142:                                              ; preds = %139
  %143 = load i32, ptr %17, align 4
  %144 = load i64, ptr %11, align 8
  %145 = sub i64 6, %144
  %146 = trunc i64 %145 to i32
  %147 = shl i32 %143, %146
  %148 = and i32 %147, 63
  %149 = call i32 @b64_byte_to_char(i32 noundef %148)
  %150 = trunc i32 %149 to i8
  %151 = load ptr, ptr %6, align 8
  %152 = load i64, ptr %13, align 8
  %153 = add i64 %152, 1
  store i64 %153, ptr %13, align 8
  %154 = getelementptr i8, ptr %151, i64 %152
  store i8 %150, ptr %154, align 1
  br label %155

155:                                              ; preds = %142, %139
  br label %156

156:                                              ; preds = %155, %103
  br label %157

157:                                              ; preds = %161, %156
  %158 = load i64, ptr %13, align 8
  %159 = load i64, ptr %12, align 8
  %160 = icmp ult i64 %158, %159
  br i1 %160, label %161, label %166

161:                                              ; preds = %157
  %162 = load ptr, ptr %6, align 8
  %163 = load i64, ptr %13, align 8
  %164 = add i64 %163, 1
  store i64 %164, ptr %13, align 8
  %165 = getelementptr i8, ptr %162, i64 %163
  store i8 61, ptr %165, align 1
  br label %157, !llvm.loop !11

166:                                              ; preds = %157
  br label %167

167:                                              ; preds = %172, %166
  %168 = load ptr, ptr %6, align 8
  %169 = load i64, ptr %13, align 8
  %170 = add i64 %169, 1
  store i64 %170, ptr %13, align 8
  %171 = getelementptr i8, ptr %168, i64 %169
  store i8 0, ptr %171, align 1
  br label %172

172:                                              ; preds = %167
  %173 = load i64, ptr %13, align 8
  %174 = load i64, ptr %7, align 8
  %175 = icmp ult i64 %173, %174
  br i1 %175, label %167, label %176, !llvm.loop !12

176:                                              ; preds = %172
  %177 = load ptr, ptr %6, align 8
  call void @llvm.lifetime.end.p0(i64 4, ptr %17) #5
  call void @llvm.lifetime.end.p0(i64 8, ptr %16) #5
  call void @llvm.lifetime.end.p0(i64 8, ptr %15) #5
  call void @llvm.lifetime.end.p0(i64 8, ptr %14) #5
  call void @llvm.lifetime.end.p0(i64 8, ptr %13) #5
  call void @llvm.lifetime.end.p0(i64 8, ptr %12) #5
  call void @llvm.lifetime.end.p0(i64 8, ptr %11) #5
  ret ptr %177
}