; Function Attrs: nounwind ssp uwtable
define dso_local noundef nonnull ptr @sodium_bin2base64(ptr noundef nonnull returned writeonly captures(ret: address, provenance) %0, i64 noundef %1, ptr noundef readonly captures(none) %2, i64 noundef %3, i32 noundef %4) local_unnamed_addr #0 {
  %6 = and i32 %4, -7
  %.not.i = icmp eq i32 %6, 1
  br i1 %.not.i, label %sodium_base64_check_variant.exit, label %7

7:                                                ; preds = %5
  tail call void @sodium_misuse() #7
  unreachable

sodium_base64_check_variant.exit:                 ; preds = %5
  %8 = udiv i64 %3, 3
  %.neg = mul i64 %8, -3
  %9 = add i64 %.neg, %3
  %10 = shl i64 %8, 2
  %.not = icmp eq i64 %9, 0
  br i1 %.not, label %20, label %11

11:                                               ; preds = %sodium_base64_check_variant.exit
  %12 = and i32 %4, 2
  %13 = icmp eq i32 %12, 0
  br i1 %13, label %14, label %16

14:                                               ; preds = %11
  %15 = add i64 %10, 4
  br label %20

16:                                               ; preds = %11
  %17 = lshr i64 %9, 1
  %18 = or disjoint i64 %10, 2
  %19 = add i64 %18, %17
  br label %20

20:                                               ; preds = %14, %16, %sodium_base64_check_variant.exit
  %.057 = phi i64 [ %15, %14 ], [ %19, %16 ], [ %10, %sodium_base64_check_variant.exit ]
  %.not66 = icmp ugt i64 %1, %.057
  br i1 %.not66, label %22, label %21

21:                                               ; preds = %20
  tail call void @sodium_misuse() #7
  unreachable

22:                                               ; preds = %20
  %.not67 = icmp samesign ult i32 %4, 4
  %.not103 = icmp eq i64 %3, 0
  br i1 %.not67, label %.preheader76, label %.preheader78

.preheader78:                                     ; preds = %22
  br i1 %.not103, label %._crit_edge.thread, label %.lr.ph

.preheader76:                                     ; preds = %22
  br i1 %.not103, label %._crit_edge.thread, label %.lr.ph93

.loopexit77:                                      ; preds = %30
  %23 = add nuw i64 %.05882, 1
  %exitcond.not = icmp eq i64 %23, %3
  br i1 %exitcond.not, label %._crit_edge, label %.lr.ph, !llvm.loop !7

.lr.ph:                                           ; preds = %.preheader78, %.loopexit77
  %.084 = phi i32 [ %28, %.loopexit77 ], [ 0, %.preheader78 ]
  %.05583 = phi i64 [ %31, %.loopexit77 ], [ 0, %.preheader78 ]
  %.05882 = phi i64 [ %23, %.loopexit77 ], [ 0, %.preheader78 ]
  %.06081 = phi i64 [ %63, %.loopexit77 ], [ 0, %.preheader78 ]
  %24 = shl i32 %.084, 8
  %25 = getelementptr i8, ptr %2, i64 %.05882
  %26 = load i8, ptr %25, align 1
  %27 = zext i8 %26 to i32
  %28 = or disjoint i32 %24, %27
  %29 = or disjoint i64 %.05583, 8
  br label %30

30:                                               ; preds = %.lr.ph, %30
  %.15680 = phi i64 [ %29, %.lr.ph ], [ %31, %30 ]
  %.16179 = phi i64 [ %.06081, %.lr.ph ], [ %63, %30 ]
  %31 = add i64 %.15680, -6
  %32 = trunc i64 %31 to i32
  %33 = lshr i32 %28, %32
  %34 = and i32 %33, 63
  %35 = add nuw nsw i32 %34, 65510
  %36 = lshr i32 %35, 8
  %37 = add nuw nsw i32 %34, 65
  %38 = and i32 %36, %37
  %39 = xor i32 %36, -1
  %40 = add nuw nsw i32 %34, 65484
  %41 = lshr i32 %40, 8
  %42 = add nuw nsw i32 %34, 71
  %43 = and i32 %42, %39
  %44 = and i32 %43, %41
  %45 = or i32 %44, %38
  %46 = xor i32 %41, -1
  %47 = add nuw nsw i32 %34, 65474
  %48 = lshr i32 %47, 8
  %49 = add nuw nsw i32 %34, 252
  %50 = and i32 %48, %49
  %51 = and i32 %50, %46
  %52 = xor i32 %34, 16321
  %.neg.i = add nuw nsw i32 %52, 1
  %53 = lshr i32 %.neg.i, 8
  %54 = and i32 %53, 45
  %55 = xor i32 %54, 45
  %.neg10.i = add nuw nsw i32 %34, 32705
  %56 = lshr i32 %.neg10.i, 8
  %57 = and i32 %56, 95
  %58 = xor i32 %57, 95
  %59 = or i32 %45, %58
  %60 = or i32 %59, %51
  %61 = or i32 %60, %55
  %62 = trunc i32 %61 to i8
  %63 = add i64 %.16179, 1
  %64 = getelementptr i8, ptr %0, i64 %.16179
  store i8 %62, ptr %64, align 1
  %65 = icmp ugt i64 %31, 5
  br i1 %65, label %30, label %.loopexit77, !llvm.loop !8

._crit_edge:                                      ; preds = %.loopexit77
  %.not69 = icmp eq i64 %31, 0
  br i1 %.not69, label %._crit_edge.thread, label %._crit_edge.thread.sink.split

.loopexit:                                        ; preds = %73
  %66 = add nuw i64 %.15990, 1
  %exitcond110.not = icmp eq i64 %66, %3
  br i1 %exitcond110.not, label %._crit_edge94, label %.lr.ph93, !llvm.loop !9

.lr.ph93:                                         ; preds = %.preheader76, %.loopexit
  %.192 = phi i32 [ %71, %.loopexit ], [ 0, %.preheader76 ]
  %.291 = phi i64 [ %74, %.loopexit ], [ 0, %.preheader76 ]
  %.15990 = phi i64 [ %66, %.loopexit ], [ 0, %.preheader76 ]
  %.36389 = phi i64 [ %106, %.loopexit ], [ 0, %.preheader76 ]
  %67 = shl i32 %.192, 8
  %68 = getelementptr i8, ptr %2, i64 %.15990
  %69 = load i8, ptr %68, align 1
  %70 = zext i8 %69 to i32
  %71 = or disjoint i32 %67, %70
  %72 = or disjoint i64 %.291, 8
  br label %73

73:                                               ; preds = %.lr.ph93, %73
  %.388 = phi i64 [ %72, %.lr.ph93 ], [ %74, %73 ]
  %.487 = phi i64 [ %.36389, %.lr.ph93 ], [ %106, %73 ]
  %74 = add i64 %.388, -6
  %75 = trunc i64 %74 to i32
  %76 = lshr i32 %71, %75
  %77 = and i32 %76, 63
  %78 = add nuw nsw i32 %77, 65510
  %79 = lshr i32 %78, 8
  %80 = add nuw nsw i32 %77, 65
  %81 = and i32 %79, %80
  %82 = xor i32 %79, -1
  %83 = add nuw nsw i32 %77, 65484
  %84 = lshr i32 %83, 8
  %85 = add nuw nsw i32 %77, 71
  %86 = and i32 %85, %82
  %87 = and i32 %86, %84
  %88 = or i32 %87, %81
  %89 = xor i32 %84, -1
  %90 = add nuw nsw i32 %77, 65474
  %91 = lshr i32 %90, 8
  %92 = add nuw nsw i32 %77, 252
  %93 = and i32 %91, %92
  %94 = and i32 %93, %89
  %95 = xor i32 %77, 16321
  %.neg.i72 = add nuw nsw i32 %95, 1
  %96 = lshr i32 %.neg.i72, 8
  %97 = and i32 %96, 43
  %98 = xor i32 %97, 43
  %.neg10.i73 = add nuw nsw i32 %77, 16321
  %99 = lshr i32 %.neg10.i73, 8
  %100 = and i32 %99, 47
  %101 = xor i32 %100, 47
  %102 = or i32 %88, %101
  %103 = or i32 %102, %94
  %104 = or i32 %103, %98
  %105 = trunc i32 %104 to i8
  %106 = add i64 %.487, 1
  %107 = getelementptr i8, ptr %0, i64 %.487
  store i8 %105, ptr %107, align 1
  %108 = icmp ugt i64 %74, 5
  br i1 %108, label %73, label %.loopexit, !llvm.loop !10

._crit_edge94:                                    ; preds = %.loopexit
  %.not68 = icmp eq i64 %74, 0
  br i1 %.not68, label %._crit_edge.thread, label %._crit_edge.thread.sink.split

._crit_edge.thread.sink.split:                    ; preds = %._crit_edge94, %._crit_edge
  %.lcssa120.lcssa.sink = phi i64 [ %31, %._crit_edge ], [ %74, %._crit_edge94 ]
  %.lcssa121.sink = phi i32 [ %28, %._crit_edge ], [ %71, %._crit_edge94 ]
  %.sink141 = phi i32 [ 45, %._crit_edge ], [ 43, %._crit_edge94 ]
  %.sink137 = phi i32 [ 32705, %._crit_edge ], [ 16321, %._crit_edge94 ]
  %.sink135 = phi i32 [ 95, %._crit_edge ], [ 47, %._crit_edge94 ]
  %.lcssa.lcssa.sink126 = phi i64 [ %63, %._crit_edge ], [ %106, %._crit_edge94 ]
  %109 = trunc nuw i64 %.lcssa120.lcssa.sink to i32
  %110 = sub nuw nsw i32 6, %109
  %111 = shl i32 %.lcssa121.sink, %110
  %112 = and i32 %111, 63
  %113 = add nuw nsw i32 %112, 65510
  %114 = lshr i32 %113, 8
  %115 = add nuw nsw i32 %112, 65
  %116 = and i32 %114, %115
  %117 = xor i32 %114, -1
  %118 = add nuw nsw i32 %112, 65484
  %119 = lshr i32 %118, 8
  %120 = add nuw nsw i32 %112, 71
  %121 = and i32 %120, %117
  %122 = and i32 %121, %119
  %123 = or i32 %122, %116
  %124 = xor i32 %119, -1
  %125 = add nuw nsw i32 %112, 65474
  %126 = lshr i32 %125, 8
  %127 = add nuw nsw i32 %112, 252
  %128 = and i32 %126, %127
  %129 = and i32 %128, %124
  %130 = xor i32 %112, 16321
  %.neg.i74 = add nuw nsw i32 %130, 1
  %131 = lshr i32 %.neg.i74, 8
  %132 = xor i32 %131, -1
  %133 = and i32 %.sink141, %132
  %.neg10.i75 = add nuw nsw i32 %112, %.sink137
  %134 = lshr i32 %.neg10.i75, 8
  %135 = xor i32 %134, -1
  %136 = and i32 %.sink135, %135
  %137 = or i32 %123, %136
  %138 = or i32 %137, %129
  %139 = or i32 %138, %133
  %140 = trunc i32 %139 to i8
  %141 = add i64 %.lcssa.lcssa.sink126, 1
  %142 = getelementptr i8, ptr %0, i64 %.lcssa.lcssa.sink126
  store i8 %140, ptr %142, align 1
  br label %._crit_edge.thread

._crit_edge.thread:                               ; preds = %._crit_edge.thread.sink.split, %.preheader76, %.preheader78, %._crit_edge94, %._crit_edge
  %.262 = phi i64 [ %63, %._crit_edge ], [ %106, %._crit_edge94 ], [ 0, %.preheader78 ], [ 0, %.preheader76 ], [ %141, %._crit_edge.thread.sink.split ]
  %143 = icmp ult i64 %.262, %.057
  br i1 %143, label %.lr.ph100.preheader, label %.preheader

.lr.ph100.preheader:                              ; preds = %._crit_edge.thread
  %scevgep = getelementptr i8, ptr %0, i64 %.262
  %144 = sub nuw i64 %.057, %.262
  tail call void @llvm.memset.p0.i64(ptr align 1 %scevgep, i8 61, i64 %144, i1 false)
  br label %.preheader

.preheader:                                       ; preds = %.lr.ph100.preheader, %._crit_edge.thread
  %.5.lcssa = phi i64 [ %.262, %._crit_edge.thread ], [ %.057, %.lr.ph100.preheader ]
  %scevgep111 = getelementptr i8, ptr %0, i64 %.5.lcssa
  %145 = add i64 %.5.lcssa, 1
  %umax = tail call i64 @llvm.umax.i64(i64 %1, i64 %145)
  %146 = sub i64 %umax, %.5.lcssa
  tail call void @llvm.memset.p0.i64(ptr align 1 %scevgep111, i8 0, i64 %146, i1 false)
  ret ptr %0
}